(dp1
S'output'
p2
S'<class \'psycopg2.ProgrammingError\'> relation "auth_user" already exists\n'
p3
sS'layer'
p4
S'/home/phan/sources/othsec-web/web2py/applications/TrackR/models/db.py'
p5
sS'code'
p6
S'# -*- coding: utf-8 -*-\nimport logging, logging.handlers\n\n# Assign application logger to a global var\nlogger = logging.getLogger("othsec")\nlogger.setLevel(logging.DEBUG)\n\n# -------------------------------------------------------------------------\n# This scaffolding model makes your app work on Google App Engine too\n# File is released under public domain and you can use without limitations\n# -------------------------------------------------------------------------\n#logger.debug(\'Entering db.py file...\')\n\nif request.global_settings.web2py_version < "2.14.1":\n    raise HTTP(500, "Requires web2py 2.13.3 or newer")\n\n# -------------------------------------------------------------------------\n# if SSL/HTTPS is properly configured and you want all HTTP requests to\n# be redirected to HTTPS, uncomment the line below:\n# -------------------------------------------------------------------------\n# request.requires_https()\n\n# -------------------------------------------------------------------------\n# app configuration made easy. Look inside private/appconfig.ini\n# -------------------------------------------------------------------------\nfrom gluon.contrib.appconfig import AppConfig\n\n# -------------------------------------------------------------------------\n# once in production, remove reload=True to gain full speed\n# -------------------------------------------------------------------------\nmyconf = AppConfig(reload=True)\n\nif not request.env.web2py_runtime_gae:\n    # ---------------------------------------------------------------------\n    # if NOT running on Google App Engine use SQLite or other DB\n    # ---------------------------------------------------------------------\n    db = DAL(myconf.get(\'db.uri\'),\n             pool_size=myconf.get(\'db.pool_size\'),\n             #fake_migrate_all=True,\n             migrate_enabled=myconf.get(\'db.migrate\'),\n             check_reserved=[\'all\'])\nelse:\n    # ---------------------------------------------------------------------\n    # connect to Google BigTable (optional \'google:datastore://namespace\')\n    # ---------------------------------------------------------------------\n    db = DAL(\'google:datastore+ndb\')\n    # ---------------------------------------------------------------------\n    # store sessions and tickets there\n    # ---------------------------------------------------------------------\n    session.connect(request, response, db=db)\n    # ---------------------------------------------------------------------\n    # or store session in Memcache, Redis, etc.\n    # from gluon.contrib.memdb import MEMDB\n    # from google.appengine.api.memcache import Client\n    # session.connect(request, response, db = MEMDB(Client()))\n    # ---------------------------------------------------------------------\n\n# -------------------------------------------------------------------------\n# by default give a view/generic.extension to all actions from localhost\n# none otherwise. a pattern can be \'controller/function.extension\'\n# -------------------------------------------------------------------------\nresponse.generic_patterns = [\'*\'] if request.is_local else []\n# -------------------------------------------------------------------------\n# choose a style for forms\n# -------------------------------------------------------------------------\nresponse.formstyle = myconf.get(\'forms.formstyle\')  # or \'bootstrap3_stacked\' or \'bootstrap2\' or other\nresponse.form_label_separator = myconf.get(\'forms.separator\') or \'\'\n\n# -------------------------------------------------------------------------\n# (optional) optimize handling of static files\n# -------------------------------------------------------------------------\n# response.optimize_css = \'concat,minify,inline\'\n# response.optimize_js = \'concat,minify,inline\'\n\n# -------------------------------------------------------------------------\n# (optional) static assets folder versioning\n# -------------------------------------------------------------------------\n# response.static_version = \'0.0.0\'\n\n# -------------------------------------------------------------------------\n# Here is sample code if you need for\n# - email capabilities\n# - authentication (registration, login, logout, ... )\n# - authorization (role based authorization)\n# - services (xml, csv, json, xmlrpc, jsonrpc, amf, rss)\n# - old style crud actions\n# (more options discussed in gluon/tools.py)\n# -------------------------------------------------------------------------\n\nfrom gluon.tools import Auth, Service, PluginManager\n\n# host names must be a list of allowed host names (glob syntax allowed)\nauth = Auth(db, host_names=myconf.get(\'host.names\'))\nservice = Service()\nplugins = PluginManager()\n\n# -------------------------------------------------------------------------\n# create all tables needed by auth if not custom tables\n# -------------------------------------------------------------------------\nauth.define_tables(username=False, signature=False)\n\n# -------------------------------------------------------------------------\n# configure email\n# -------------------------------------------------------------------------\nmail = auth.settings.mailer\nmail.settings.server = \'logging\' if request.is_local else myconf.get(\'smtp.server\')\nmail.settings.sender = myconf.get(\'smtp.sender\')\nmail.settings.login = myconf.get(\'smtp.login\')\nmail.settings.tls = myconf.get(\'smtp.tls\') or False\nmail.settings.ssl = myconf.get(\'smtp.ssl\') or False\n\n# -------------------------------------------------------------------------\n# configure auth policy\n# -------------------------------------------------------------------------\nauth.settings.registration_requires_verification = False\nauth.settings.registration_requires_approval = False\nauth.settings.reset_password_requires_verification = True\n\n# -------------------------------------------------------------------------\n# Define your tables below (or better in another model file) for example\n#\n# >>> db.define_table(\'mytable\', Field(\'myfield\', \'string\'))\n#\n# Fields can be \'string\',\'text\',\'password\',\'integer\',\'double\',\'boolean\'\n#       \'date\',\'time\',\'datetime\',\'blob\',\'upload\', \'reference TABLENAME\'\n# There is an implicit \'id integer autoincrement\' field\n# Consult manual for more options, validators, etc.\n#\n# More API examples for controllers:\n#\n# >>> db.mytable.insert(myfield=\'value\')\n# >>> rows = db(db.mytable.myfield == \'value\').select(db.mytable.ALL)\n# >>> for row in rows: print row.id, row.myfield\n# -------------------------------------------------------------------------\ndb.define_table(\'ipligence2\',\n  Field(\'ip_from\', \'integer\',10,\'0000000000\'),\n  Field(\'ip_to\', \'integer\',10,\'0000000000\'),\n  Field(\'country_code\', \'string\',10),\n  Field(\'country_name\', \'string\',255),\n  Field(\'continent_code\', \'string\',10),\n  Field(\'continent_name\', \'string\',255),\n  Field(\'time_zone\', \'string\',10),\n  Field(\'region_code\', \'string\',10),\n  Field(\'region_name\', \'string\',255),\n  Field(\'the_owner\', \'string\',255),\n  Field(\'city_name\', \'string\',255),\n  Field(\'county_name\', \'string\',255),\n  Field(\'latitude\', \'double\'),\n  Field(\'longitude\', \'double\'))\n\ndb.define_table(\'othsec\',\n  Field(\'idn\', \'string\',20,\'\'),\n  Field(\'username\', \'string\',30,\'\'),\n  Field(\'protocol\', \'string\',8,\'IP\'),\n  Field(\'datetime_remote\', \'datetime\'),                              # datetime\n  Field(\'datetime_othsec\', \'datetime\'),\n  Field(\'addr_from\', \'string\',40,\'aa.aa.aa.aa\'),                     # Source IP\n  Field(\'addr_to\', \'string\',40,\'bb.bb.bb.bb\'),                       # Destination IP\n  Field(\'port_from\', \'string\',10,\'0000\'),                            # Source Port\n  Field(\'port_to\', \'string\',10,\'0000\'),                              # Destination Port\n  Field(\'eth_mac_from\', \'string\',12,\'\'),\n  Field(\'eth_mac_to\', \'string\',12,\'\'),\n  Field(\'iph_version\', \'integer\',0),                                 # IP Version\n  Field(\'iph_iphdrlen\', \'integer\',0),                                # IP Header Length\n  Field(\'iph_tos\', \'integer\',0),                                     # Type Of Service\n  Field(\'iph_tot_len\', \'integer\',0),                                 # IP Total Length\n  Field(\'iph_id\', \'integer\',0),                                      # Identification\n  Field(\'iph_ttl\', \'integer\',0),                                     # TTL\n  Field(\'iph_protocol\', \'integer\',0),                                # Protocol\n  Field(\'iph_check\', \'integer\',0),                                   # Checksum\n  Field(\'ip6_vfc\', \'integer\',0),                                     # VFC\n  Field(\'ip6_flow\', \'integer\',0),                                    # Flow\n  Field(\'ip6_plen\', \'integer\',0),                                    # Length\n  Field(\'ip6_nxt\', \'integer\',0),                                     # Next Header\n  Field(\'ip6_hlim\', \'integer\',0),                                    # Limit\n  Field(\'ip6_hops\', \'integer\',0),                                    # Hops\n  Field(\'tcph_seq\', \'integer\',0),                                    # Sequence Number\n  Field(\'tcph_ack_seq\', \'integer\',0),                                # Acknowledge Number\n  Field(\'tcph_doff\', \'integer\',0),                                   # Header Length\n  Field(\'tcph_urg\', \'boolean\',0),                                    # Urgent Flag\n  Field(\'tcph_ack\', \'boolean\',0),                                    # Acknowledgement Flag\n  Field(\'tcph_psh\', \'boolean\',0),                                    # Push Flag\n  Field(\'tcph_rst\', \'boolean\',0),                                    # Reset Flag\n  Field(\'tcph_syn\', \'boolean\',0),                                    # Synchronise Flag\n  Field(\'tcph_fin\', \'boolean\',0),                                    # Finish Flag\n  Field(\'tcph_window\', \'integer\',0),                                 # Window\n  Field(\'tcph_check\', \'integer\',0),                                  # Checksum\n  Field(\'tcph_urg_ptr\', \'integer\',0),                                # Urgent Pointer\n  Field(\'body_message\', \'string\',255))\n\ndb.define_table(\'ipanalyzed\',\n  Field(\'idn\', \'string\',20,\'\'),\n  Field(\'username\', \'string\',30,\'\'),\n  Field(\'datetime\', \'datetime\'),\n  Field(\'ip_version\', \'integer\',0),\n  Field(\'tcp_protocol\', \'integer\',0),\n  Field(\'ip_addr\', \'string\',40,\'aa.aa.aa.aa\'),\n  Field(\'port\', \'string\',10,\'0000\'),\n  Field(\'mac\', \'string\',12,\'\'),\n  Field(\'status\', \'string\',10),\n  Field(\'risk\', \'integer\',0),\n  Field(\'hits\', \'integer\',0),\n  Field(\'longitude\', \'double\',0),\n  Field(\'latitude\', \'double\',0),\n  Field(\'tcph_rst\', \'integer\',0),\n  Field(\'tcph_psh\', \'integer\',0),\n  Field(\'tcph_fin\', \'integer\',0),\n  Field(\'tcph_ack\', \'integer\',0),\n  Field(\'tcph_syn\', \'integer\',0),\n  Field(\'tcph_urg\', \'integer\',0))\n\ndb.define_table(\'loganalyzed\',\n  Field(\'idn\', \'string\',20,\'\'),\n  Field(\'username\', \'string\',30,\'\'),\n  Field(\'logon\', \'string\',30,\'\'),\n  Field(\'datetime\', \'datetime\'),\n  Field(\'protocol\', \'string\',8,\'IP\'),\n  Field(\'ip_addr\', \'string\',40,\'aa.aa.aa.aa\'),\n  Field(\'port\', \'string\',10,\'0000\'),\n  Field(\'service\', \'string\',50,\'0000\'),\n  Field(\'status\', \'string\',10),\n  Field(\'conn_tries\', \'integer\',0),\n  Field(\'auth_failure\', \'integer\',0),\n  Field(\'banned\', \'integer\',0),\n  Field(\'longitude\', \'double\',0),\n  Field(\'latitude\', \'double\',0))\n\ndb.define_table(\'rtc\',Field(\'access_token\'))\n\ndb.define_table(\'params\',\n  Field(\'id\', \'string\',20,\'\'),\n  Field(\'username\', \'string\',30,\'\'),\n  Field(\'knn_n_neighbors\', \'double\', 0.01),\n  Field(\'knn_h\', \'double\', 0.01),\n  Field(\'svm_nu\', \'double\', 0.01),\n  Field(\'svm_gamma\', \'double\', 0.01),\n  Field(\'svm_kernel\', \'string\', 20, \'rbf\'))\n\n\ndb.executesql(\'CREATE INDEX IF NOT EXISTS myidx1 ON othsec (idn);\')\ndb.executesql(\'CREATE INDEX IF NOT EXISTS myidx2 ON ipanalyzed (idn);\')\ndb.executesql(\'CREATE INDEX IF NOT EXISTS myidx3 ON ipanalyzed (ip_addr);\')\ndb.executesql(\'CREATE INDEX IF NOT EXISTS myidx4 ON loganalyzed (idn);\')\ndb.executesql(\'CREATE INDEX IF NOT EXISTS myidx5 ON loganalyzed (ip_addr);\')\n\n# -------------------------------------------------------------------------\n# after defining tables, uncomment below to enable auditing\n# -------------------------------------------------------------------------\n# auth.enable_record_versioning(db)\n\nmail.settings.server = settings.email_server\nmail.settings.sender = settings.email_sender\nmail.settings.login = settings.email_login\n'
p7
sS'snapshot'
p8
(dp9
S'exception'
p10
(dp11
S'__module__'
p12
S"'psycopg2'"
p13
sS'__getslice__'
p14
S"<method-wrapper '__getslice__' of ProgrammingError object>"
p15
sS'__str__'
p16
S"<method-wrapper '__str__' of ProgrammingError object>"
p17
sS'__reduce__'
p18
S'<built-in method __reduce__ of ProgrammingError object>'
p19
sS'__dict__'
p20
S'{}'
p21
sS'__sizeof__'
p22
S'<built-in method __sizeof__ of ProgrammingError object>'
p23
sS'__weakref__'
p24
S'None'
p25
sS'__init__'
p26
S"<method-wrapper '__init__' of ProgrammingError object>"
p27
sS'__setattr__'
p28
S"<method-wrapper '__setattr__' of ProgrammingError object>"
p29
sS'__reduce_ex__'
p30
S'<built-in method __reduce_ex__ of ProgrammingError object>'
p31
sS'__new__'
p32
S'<built-in method __new__ of type object>'
p33
sS'diag'
p34
S'<psycopg2.extensions.Diagnostics object>'
p35
sS'__format__'
p36
S'<built-in method __format__ of ProgrammingError object>'
p37
sS'__class__'
p38
S"<class 'psycopg2.ProgrammingError'>"
p39
sS'pgerror'
p40
S'\'ERROR:  relation "auth_user" already exists\\n\''
p41
sS'__doc__'
p42
S"'Error related to database programming (SQL error, table not found etc).'"
p43
sS'__getitem__'
p44
S"<method-wrapper '__getitem__' of ProgrammingError object>"
p45
sS'__setstate__'
p46
S'<built-in method __setstate__ of ProgrammingError object>'
p47
sS'__getattribute__'
p48
S"<method-wrapper '__getattribute__' of ProgrammingError object>"
p49
sS'args'
p50
S'(\'relation "auth_user" already exists\\n\',)'
p51
sS'__subclasshook__'
p52
S'<built-in method __subclasshook__ of type object>'
p53
sS'pgcode'
p54
S"'42P07'"
p55
sS'__unicode__'
p56
S'<built-in method __unicode__ of ProgrammingError object>'
p57
sS'cursor'
p58
S'<cursor object at 0x7fdfb155b718; closed: 0>'
p59
sS'__delattr__'
p60
S"<method-wrapper '__delattr__' of ProgrammingError object>"
p61
sS'__repr__'
p62
S"<method-wrapper '__repr__' of ProgrammingError object>"
p63
sS'__hash__'
p64
S"<method-wrapper '__hash__' of ProgrammingError object>"
p65
ssS'evalue'
p66
S'relation "auth_user" already exists\n'
p67
sS'request'
p68
cgluon.html
XML_unpickle
p69
(S's(_\x00\x00<div><table><tr><td style="font-weight:bold;vertical-align:top;">ajax</td><td style="vertical-align:top;">:</td><td><div>False</div></td></tr><tr><td style="font-weight:bold;vertical-align:top;">application</td><td style="vertical-align:top;">:</td><td><div>TrackR</div></td></tr><tr><td style="font-weight:bold;vertical-align:top;">args</td><td style="vertical-align:top;">:</td><td><div><table></table></div></td></tr><tr><td style="font-weight:bold;vertical-align:top;">cid</td><td style="vertical-align:top;">:</td><td><div>None</div></td></tr><tr><td style="font-weight:bold;vertical-align:top;">client</td><td style="vertical-align:top;">:</td><td><div>82.127.164.154</div></td></tr><tr><td style="font-weight:bold;vertical-align:top;">controller</td><td style="vertical-align:top;">:</td><td><div>errors</div></td></tr><tr><td style="font-weight:bold;vertical-align:top;">cookies</td><td style="vertical-align:top;">:</td><td><div><table><tr><td style="font-weight:bold;vertical-align:top;">session_id_admin</td><td style="vertical-align:top;">:</td><td><div>82.127.164.154-0ae710c3-e03b-48bd-bf33-7a2299dd01ca<table><tr><td style="font-weight:bold;vertical-align:top;">comment</td><td style="vertical-align:top;">:</td><td><div></div></td></tr><tr><td style="font-weight:bold;vertical-align:top;">domain</td><td style="vertical-align:top;">:</td><td><div></div></td></tr><tr><td style="font-weight:bold;vertical-align:top;">expires</td><td style="vertical-align:top;">:</td><td><div></div></td></tr><tr><td style="font-weight:bold;vertical-align:top;">httponly</td><td style="vertical-align:top;">:</td><td><div></div></td></tr><tr><td style="font-weight:bold;vertical-align:top;">max-age</td><td style="vertical-align:top;">:</td><td><div></div></td></tr><tr><td style="font-weight:bold;vertical-align:top;">path</td><td style="vertical-align:top;">:</td><td><div></div></td></tr><tr><td style="font-weight:bold;vertical-align:top;">secure</td><td style="vertical-align:top;">:</td><td><div></div></td></tr><tr><td style="font-weight:bold;vertical-align:top;">version</td><td style="vertical-align:top;">:</td><td><div></div></td></tr></table></div></td></tr><tr><td style="font-weight:bold;vertical-align:top;">session_id_trackr</td><td style="vertical-align:top;">:</td><td><div>82.127.164.154-34bd5fdf-104e-440a-adf8-1e6562463c12<table><tr><td style="font-weight:bold;vertical-align:top;">comment</td><td style="vertical-align:top;">:</td><td><div></div></td></tr><tr><td style="font-weight:bold;vertical-align:top;">domain</td><td style="vertical-align:top;">:</td><td><div></div></td></tr><tr><td style="font-weight:bold;vertical-align:top;">expires</td><td style="vertical-align:top;">:</td><td><div></div></td></tr><tr><td style="font-weight:bold;vertical-align:top;">httponly</td><td style="vertical-align:top;">:</td><td><div></div></td></tr><tr><td style="font-weight:bold;vertical-align:top;">max-age</td><td style="vertical-align:top;">:</td><td><div></div></td></tr><tr><td style="font-weight:bold;vertical-align:top;">path</td><td style="vertical-align:top;">:</td><td><div></div></td></tr><tr><td style="font-weight:bold;vertical-align:top;">secure</td><td style="vertical-align:top;">:</td><td><div></div></td></tr><tr><td style="font-weight:bold;vertical-align:top;">version</td><td style="vertical-align:top;">:</td><td><div></div></td></tr></table></div></td></tr></table></div></td></tr><tr><td style="font-weight:bold;vertical-align:top;">env</td><td style="vertical-align:top;">:</td><td><div><table><tr><td style="font-weight:bold;vertical-align:top;">HTTPS</td><td style="vertical-align:top;">:</td><td><div>on</div></td></tr><tr><td style="font-weight:bold;vertical-align:top;">HTTP_ACCEPT</td><td style="vertical-align:top;">:</td><td><div>text/html,application/xhtml+xml,application/xml;q=0.9,image/webp,image/apng,*/*;q=0.8</div></td></tr><tr><td style="font-weight:bold;vertical-align:top;">HTTP_ACCEPT_ENCODING</td><td style="vertical-align:top;">:</td><td><div>gzip, deflate, br</div></td></tr><tr><td style="font-weight:bold;vertical-align:top;">HTTP_ACCEPT_LANGUAGE</td><td style="vertical-align:top;">:</td><td><div>fr-FR,fr;q=0.9,en-US;q=0.8,en;q=0.7</div></td></tr><tr><td style="font-weight:bold;vertical-align:top;">HTTP_CACHE_CONTROL</td><td style="vertical-align:top;">:</td><td><div>max-age=0</div></td></tr><tr><td style="font-weight:bold;vertical-align:top;">HTTP_CONNECTION</td><td style="vertical-align:top;">:</td><td><div>keep-alive</div></td></tr><tr><td style="font-weight:bold;vertical-align:top;">HTTP_COOKIE</td><td style="vertical-align:top;">:</td><td><div>session_id_trackr=82.127.164.154-34bd5fdf-104e-440a-adf8-1e6562463c12; session_id_admin=82.127.164.154-0ae710c3-e03b-48bd-bf33-7a2299dd01ca</div></td></tr><tr><td style="font-weight:bold;vertical-align:top;">HTTP_HOST</td><td style="vertical-align:top;">:</td><td><div>beewoo.fr</div></td></tr><tr><td style="font-weight:bold;vertical-align:top;">HTTP_UPGRADE_INSECURE_REQUESTS</td><td style="vertical-align:top;">:</td><td><div>1</div></td></tr><tr><td style="font-weight:bold;vertical-align:top;">HTTP_USER_AGENT</td><td style="vertical-align:top;">:</td><td><div>Mozilla/5.0 (Windows NT 10.0; Win64; x64) AppleWebKit/537.36 (KHTML, like Gecko) Chrome/68.0.3440.106 Safari/537.36</div></td></tr><tr><td style="font-weight:bold;vertical-align:top;">PATH_INFO</td><td style="vertical-align:top;">:</td><td><div>/TrackR/errors/index</div></td></tr><tr><td style="font-weight:bold;vertical-align:top;">QUERY_STRING</td><td style="vertical-align:top;">:</td><td><div>code=500&amp;ticket=TrackR/82.127.164.154.2018-09-20.15-54-11.7c67a0f4-deef-42c2-be50-e22b1adf146b&amp;requested_uri=%2FTrackR%2Fdefault%2Findex&amp;request_url=/TrackR/default/index</div></td></tr><tr><td style="font-weight:bold;vertical-align:top;">REMOTE_ADDR</td><td style="vertical-align:top;">:</td><td><div>82.127.164.154</div></td></tr><tr><td style="font-weight:bold;vertical-align:top;">REMOTE_PORT</td><td style="vertical-align:top;">:</td><td><div>16944</div></td></tr><tr><td style="font-weight:bold;vertical-align:top;">REQUEST_METHOD</td><td style="vertical-align:top;">:</td><td><div>GET</div></td></tr><tr><td style="font-weight:bold;vertical-align:top;">REQUEST_URI</td><td style="vertical-align:top;">:</td><td><div>/TrackR/default/index</div></td></tr><tr><td style="font-weight:bold;vertical-align:top;">SCRIPT_NAME</td><td style="vertical-align:top;">:</td><td><div></div></td></tr><tr><td style="font-weight:bold;vertical-align:top;">SERVER_NAME</td><td style="vertical-align:top;">:</td><td><div>elitelco-srv-002</div></td></tr><tr><td style="font-weight:bold;vertical-align:top;">SERVER_PORT</td><td style="vertical-align:top;">:</td><td><div>443</div></td></tr><tr><td style="font-weight:bold;vertical-align:top;">SERVER_PROTOCOL</td><td style="vertical-align:top;">:</td><td><div>HTTP/1.1</div></td></tr><tr><td style="font-weight:bold;vertical-align:top;">SERVER_SOFTWARE</td><td style="vertical-align:top;">:</td><td><div>Rocket 1.2.6</div></td></tr><tr><td style="font-weight:bold;vertical-align:top;">SSL_CLIENT_RAW_CERT</td><td style="vertical-align:top;">:</td><td><div>None</div></td></tr><tr><td style="font-weight:bold;vertical-align:top;">WEB2PY_ORIGINAL_URI</td><td style="vertical-align:top;">:</td><td><div>/</div></td></tr><tr><td style="font-weight:bold;vertical-align:top;">WEB2PY_STATUS_CODE</td><td style="vertical-align:top;">:</td><td><div>500</div></td></tr><tr><td style="font-weight:bold;vertical-align:top;">app_folders</td><td style="vertical-align:top;">:</td><td><div>set([&#x27;/home/phan/sources/othsec-web/web2py/applications/admin/&#x27;, &#x27;/home/phan/sources/othsec-web/web2py/applications/TrackR/&#x27;])</div></td></tr><tr><td style="font-weight:bold;vertical-align:top;">applications_parent</td><td style="vertical-align:top;">:</td><td><div>/home/phan/sources/othsec-web/web2py</div></td></tr><tr><td style="font-weight:bold;vertical-align:top;">cmd_args</td><td style="vertical-align:top;">:</td><td><div><table></table></div></td></tr><tr><td style="font-weight:bold;vertical-align:top;">cmd_options</td><td style="vertical-align:top;">:</td><td><div>&lt;Values at 0x7fdfb1591fc8: {&#x27;verbose&#x27;: False, &#x27;ip&#x27;: &#x27;0.0.0.0&#x27;, &#x27;debuglevel&#x27;: 30, &#x27;with_scheduler&#x27;: False, &#x27;shutdown_timeout&#x27;: 5, &#x27;taskbar&#x27;: False, &#x27;with_coverage&#x27;: False, &#x27;pid_filename&#x27;: &#x27;httpserver.pid&#x27;, &#x27;maxthreads&#x27;: None, &#x27;softcron&#x27;: False, &#x27;server_name&#x27;: &#x27;elitelco-srv-002&#x27;, &#x27;bpython&#x27;: False, &#x27;nogui&#x27;: False, &#x27;port&#x27;: 443, &#x27;print_errors&#x27;: False, &#x27;extcron&#x27;: False, &#x27;runcron&#x27;: False, &#x27;run_system_tests&#x27;: False, &#x27;test&#x27;: None, &#x27;folder&#x27;: &#x27;/home/phan/sources/othsec-web/web2py&#x27;, &#x27;config&#x27;: &#x27;&#x27;, &#x27;minthreads&#x27;: None, &#x27;shell&#x27;: None, &#x27;run&#x27;: &#x27;&#x27;, &#x27;log_filename&#x27;: &#x27;httpserver.log&#x27;, &#x27;profiler_dir&#x27;: None, &#x27;args&#x27;: [&#x27;&#x27;], &#x27;socket_timeout&#x27;: 5, &#x27;ssl_ca_certificate&#x27;: None, &#x27;scheduler&#x27;: None, &#x27;interfaces&#x27;: None, &#x27;ssl_private_key&#x27;: &#x27;./applications/TrackR/static/beewoo.key&#x27;, &#x27;gae&#x27;: None, &#x27;password&#x27;: &#x27;******&#x27;, &#x27;request_queue_size&#x27;: 5, &#x27;ssl_certificate&#x27;: &#x27;./applications/TrackR/static/beewoo.crt&#x27;, &#x27;cronjob&#x27;: False, &#x27;numthreads&#x27;: None, &#x27;quiet&#x27;: False, &#x27;import_models&#x27;: False, &#x27;timeout&#x27;: 10, &#x27;plain&#x27;: False, &#x27;nobanner&#x27;: False}&gt;</div></td></tr><tr><td style="font-weight:bold;vertical-align:top;">db_sessions</td><td style="vertical-align:top;">:</td><td><div>set([])</div></td></tr><tr><td style="font-weight:bold;vertical-align:top;">debugging</td><td style="vertical-align:top;">:</td><td><div>True</div></td></tr><tr><td style="font-weight:bold;vertical-align:top;">gluon_parent</td><td style="vertical-align:top;">:</td><td><div>/home/phan/sources/othsec-web/web2py</div></td></tr><tr><td style="font-weight:bold;vertical-align:top;">http_accept</td><td style="vertical-align:top;">:</td><td><div>text/html,application/xhtml+xml,application/xml;q=0.9,image/webp,image/apng,*/*;q=0.8</div></td></tr><tr><td style="font-weight:bold;vertical-align:top;">http_accept_encoding</td><td style="vertical-align:top;">:</td><td><div>gzip, deflate, br</div></td></tr><tr><td style="font-weight:bold;vertical-align:top;">http_accept_language</td><td style="vertical-align:top;">:</td><td><div>fr-FR,fr;q=0.9,en-US;q=0.8,en;q=0.7</div></td></tr><tr><td style="font-weight:bold;vertical-align:top;">http_cache_control</td><td style="vertical-align:top;">:</td><td><div>max-age=0</div></td></tr><tr><td style="font-weight:bold;vertical-align:top;">http_connection</td><td style="vertical-align:top;">:</td><td><div>keep-alive</div></td></tr><tr><td style="font-weight:bold;vertical-align:top;">http_cookie</td><td style="vertical-align:top;">:</td><td><div>session_id_trackr=82.127.164.154-34bd5fdf-104e-440a-adf8-1e6562463c12; session_id_admin=82.127.164.154-0ae710c3-e03b-48bd-bf33-7a2299dd01ca</div></td></tr><tr><td style="font-weight:bold;vertical-align:top;">http_host</td><td style="vertical-align:top;">:</td><td><div>beewoo.fr</div></td></tr><tr><td style="font-weight:bold;vertical-align:top;">http_upgrade_insecure_requests</td><td style="vertical-align:top;">:</td><td><div>1</div></td></tr><tr><td style="font-weight:bold;vertical-align:top;">http_user_agent</td><td style="vertical-align:top;">:</td><td><div>Mozilla/5.0 (Windows NT 10.0; Win64; x64) AppleWebKit/537.36 (KHTML, like Gecko) Chrome/68.0.3440.106 Safari/537.36</div></td></tr><tr><td style="font-weight:bold;vertical-align:top;">https</td><td style="vertical-align:top;">:</td><td><div>on</div></td></tr><tr><td style="font-weight:bold;vertical-align:top;">is_jython</td><td style="vertical-align:top;">:</td><td><div>False</div></td></tr><tr><td style="font-weight:bold;vertical-align:top;">is_pypy</td><td style="vertical-align:top;">:</td><td><div>False</div></td></tr><tr><td style="font-weight:bold;vertical-align:top;">is_source</td><td style="vertical-align:top;">:</td><td><div>True</div></td></tr><tr><td style="font-weight:bold;vertical-align:top;">local_hosts</td><td style="vertical-align:top;">:</td><td><div><table><tr><td><div>::ffff:127.0.0.1</div></td></tr><tr><td><div>::1</div></td></tr><tr><td><div>elitelco-srv-002</div></td></tr><tr><td><div>192.168.0.15</div></td></tr><tr><td><div>localhost</div></td></tr><tr><td><div>127.0.0.1</div></td></tr></table></div></td></tr><tr><td style="font-weight:bold;vertical-align:top;">path_info</td><td style="vertical-align:top;">:</td><td><div>/TrackR/errors/index</div></td></tr><tr><td style="font-weight:bold;vertical-align:top;">query_string</td><td style="vertical-align:top;">:</td><td><div>code=500&amp;ticket=TrackR/82.127.164.154.2018-09-20.15-54-11.7c67a0f4-deef-42c2-be50-e22b1adf146b&amp;requested_uri=%2FTrackR%2Fdefault%2Findex&amp;request_url=/TrackR/default/index</div></td></tr><tr><td style="font-weight:bold;vertical-align:top;">remote_addr</td><td style="vertical-align:top;">:</td><td><div>82.127.164.154</div></td></tr><tr><td style="font-weight:bold;vertical-align:top;">remote_port</td><td style="vertical-align:top;">:</td><td><div>16944</div></td></tr><tr><td style="font-weight:bold;vertical-align:top;">request_method</td><td style="vertical-align:top;">:</td><td><div>GET</div></td></tr><tr><td style="font-weight:bold;vertical-align:top;">request_uri</td><td style="vertical-align:top;">:</td><td><div>/TrackR/errors/index?code=500&amp;ticket=TrackR/82.127.164.154.2018-09-20.15-54-11.7c67a0f4-deef-42c2-be50-e22b1adf146b&amp;requested_uri=%2FTrackR%2Fdefault%2Findex&amp;request_url=/TrackR/default/index</div></td></tr><tr><td style="font-weight:bold;vertical-align:top;">script_name</td><td style="vertical-align:top;">:</td><td><div></div></td></tr><tr><td style="font-weight:bold;vertical-align:top;">server_name</td><td style="vertical-align:top;">:</td><td><div>elitelco-srv-002</div></td></tr><tr><td style="font-weight:bold;vertical-align:top;">server_port</td><td style="vertical-align:top;">:</td><td><div>443</div></td></tr><tr><td style="font-weight:bold;vertical-align:top;">server_protocol</td><td style="vertical-align:top;">:</td><td><div>HTTP/1.1</div></td></tr><tr><td style="font-weight:bold;vertical-align:top;">server_software</td><td style="vertical-align:top;">:</td><td><div>Rocket 1.2.6</div></td></tr><tr><td style="font-weight:bold;vertical-align:top;">ssl_client_raw_cert</td><td style="vertical-align:top;">:</td><td><div>None</div></td></tr><tr><td style="font-weight:bold;vertical-align:top;">web2py_original_uri</td><td style="vertical-align:top;">:</td><td><div>/TrackR/errors/index?code=500&amp;ticket=TrackR/82.127.164.154.2018-09-20.15-54-11.7c67a0f4-deef-42c2-be50-e22b1adf146b&amp;requested_uri=%2FTrackR%2Fdefault%2Findex&amp;request_url=/TrackR/default/index</div></td></tr><tr><td style="font-weight:bold;vertical-align:top;">web2py_path</td><td style="vertical-align:top;">:</td><td><div>/home/phan/sources/othsec-web/web2py</div></td></tr><tr><td style="font-weight:bold;vertical-align:top;">web2py_status_code</td><td style="vertical-align:top;">:</td><td><div>500</div></td></tr><tr><td style="font-weight:bold;vertical-align:top;">web2py_version</td><td style="vertical-align:top;">:</td><td><div>2.14.6-stable+timestamp.2016.05.10.00.21.47</div></td></tr><tr><td style="font-weight:bold;vertical-align:top;">wsgi.errors</td><td style="vertical-align:top;">:</td><td><div>&lt;open file &#x27;&lt;stderr&gt;&#x27;, mode &#x27;w&#x27; at 0x7fdfbda801e0&gt;</div></td></tr><tr><td style="font-weight:bold;vertical-align:top;">wsgi.file_wrapper</td><td style="vertical-align:top;">:</td><td><div>&lt;class wsgiref.util.FileWrapper at 0x7fdfb15bd2c0&gt;</div></td></tr><tr><td style="font-weight:bold;vertical-align:top;">wsgi.input</td><td style="vertical-align:top;">:</td><td><div>&lt;socket._fileobject object at 0x7fdf88164750&gt;</div></td></tr><tr><td style="font-weight:bold;vertical-align:top;">wsgi.multiprocess</td><td style="vertical-align:top;">:</td><td><div>False</div></td></tr><tr><td style="font-weight:bold;vertical-align:top;">wsgi.multithread</td><td style="vertical-align:top;">:</td><td><div>True</div></td></tr><tr><td style="font-weight:bold;vertical-align:top;">wsgi.run_once</td><td style="vertical-align:top;">:</td><td><div>False</div></td></tr><tr><td style="font-weight:bold;vertical-align:top;">wsgi.url_scheme</td><td style="vertical-align:top;">:</td><td><div>https</div></td></tr><tr><td style="font-weight:bold;vertical-align:top;">wsgi.version</td><td style="vertical-align:top;">:</td><td><div><table><tr><td><div>1</div></td></tr><tr><td><div>0</div></td></tr></table></div></td></tr><tr><td style="font-weight:bold;vertical-align:top;">wsgi_errors</td><td style="vertical-align:top;">:</td><td><div>&lt;open file &#x27;&lt;stderr&gt;&#x27;, mode &#x27;w&#x27; at 0x7fdfbda801e0&gt;</div></td></tr><tr><td style="font-weight:bold;vertical-align:top;">wsgi_file_wrapper</td><td style="vertical-align:top;">:</td><td><div>&lt;class wsgiref.util.FileWrapper at 0x7fdfb15bd2c0&gt;</div></td></tr><tr><td style="font-weight:bold;vertical-align:top;">wsgi_input</td><td style="vertical-align:top;">:</td><td><div>&lt;socket._fileobject object at 0x7fdf88164750&gt;</div></td></tr><tr><td style="font-weight:bold;vertical-align:top;">wsgi_multiprocess</td><td style="vertical-align:top;">:</td><td><div>False</div></td></tr><tr><td style="font-weight:bold;vertical-align:top;">wsgi_multithread</td><td style="vertical-align:top;">:</td><td><div>True</div></td></tr><tr><td style="font-weight:bold;vertical-align:top;">wsgi_run_once</td><td style="vertical-align:top;">:</td><td><div>False</div></td></tr><tr><td style="font-weight:bold;vertical-align:top;">wsgi_url_scheme</td><td style="vertical-align:top;">:</td><td><div>https</div></td></tr><tr><td style="font-weight:bold;vertical-align:top;">wsgi_version</td><td style="vertical-align:top;">:</td><td><div><table><tr><td><div>1</div></td></tr><tr><td><div>0</div></td></tr></table></div></td></tr></table></div></td></tr><tr><td style="font-weight:bold;vertical-align:top;">extension</td><td style="vertical-align:top;">:</td><td><div>html</div></td></tr><tr><td style="font-weight:bold;vertical-align:top;">folder</td><td style="vertical-align:top;">:</td><td><div>/home/phan/sources/othsec-web/web2py/applications/TrackR/</div></td></tr><tr><td style="font-weight:bold;vertical-align:top;">function</td><td style="vertical-align:top;">:</td><td><div>index</div></td></tr><tr><td style="font-weight:bold;vertical-align:top;">global_settings</td><td style="vertical-align:top;">:</td><td><div><table><tr><td style="font-weight:bold;vertical-align:top;">app_folders</td><td style="vertical-align:top;">:</td><td><div>set([&#x27;/home/phan/sources/othsec-web/web2py/applications/admin/&#x27;, &#x27;/home/phan/sources/othsec-web/web2py/applications/TrackR/&#x27;])</div></td></tr><tr><td style="font-weight:bold;vertical-align:top;">applications_parent</td><td style="vertical-align:top;">:</td><td><div>/home/phan/sources/othsec-web/web2py</div></td></tr><tr><td style="font-weight:bold;vertical-align:top;">cmd_args</td><td style="vertical-align:top;">:</td><td><div><table></table></div></td></tr><tr><td style="font-weight:bold;vertical-align:top;">cmd_options</td><td style="vertical-align:top;">:</td><td><div>&lt;Values at 0x7fdfb1591fc8: {&#x27;verbose&#x27;: False, &#x27;ip&#x27;: &#x27;0.0.0.0&#x27;, &#x27;debuglevel&#x27;: 30, &#x27;with_scheduler&#x27;: False, &#x27;shutdown_timeout&#x27;: 5, &#x27;taskbar&#x27;: False, &#x27;with_coverage&#x27;: False, &#x27;pid_filename&#x27;: &#x27;httpserver.pid&#x27;, &#x27;maxthreads&#x27;: None, &#x27;softcron&#x27;: False, &#x27;server_name&#x27;: &#x27;elitelco-srv-002&#x27;, &#x27;bpython&#x27;: False, &#x27;nogui&#x27;: False, &#x27;port&#x27;: 443, &#x27;print_errors&#x27;: False, &#x27;extcron&#x27;: False, &#x27;runcron&#x27;: False, &#x27;run_system_tests&#x27;: False, &#x27;test&#x27;: None, &#x27;folder&#x27;: &#x27;/home/phan/sources/othsec-web/web2py&#x27;, &#x27;config&#x27;: &#x27;&#x27;, &#x27;minthreads&#x27;: None, &#x27;shell&#x27;: None, &#x27;run&#x27;: &#x27;&#x27;, &#x27;log_filename&#x27;: &#x27;httpserver.log&#x27;, &#x27;profiler_dir&#x27;: None, &#x27;args&#x27;: [&#x27;&#x27;], &#x27;socket_timeout&#x27;: 5, &#x27;ssl_ca_certificate&#x27;: None, &#x27;scheduler&#x27;: None, &#x27;interfaces&#x27;: None, &#x27;ssl_private_key&#x27;: &#x27;./applications/TrackR/static/beewoo.key&#x27;, &#x27;gae&#x27;: None, &#x27;password&#x27;: &#x27;******&#x27;, &#x27;request_queue_size&#x27;: 5, &#x27;ssl_certificate&#x27;: &#x27;./applications/TrackR/static/beewoo.crt&#x27;, &#x27;cronjob&#x27;: False, &#x27;numthreads&#x27;: None, &#x27;quiet&#x27;: False, &#x27;import_models&#x27;: False, &#x27;timeout&#x27;: 10, &#x27;plain&#x27;: False, &#x27;nobanner&#x27;: False}&gt;</div></td></tr><tr><td style="font-weight:bold;vertical-align:top;">db_sessions</td><td style="vertical-align:top;">:</td><td><div>set([])</div></td></tr><tr><td style="font-weight:bold;vertical-align:top;">debugging</td><td style="vertical-align:top;">:</td><td><div>True</div></td></tr><tr><td style="font-weight:bold;vertical-align:top;">gluon_parent</td><td style="vertical-align:top;">:</td><td><div>/home/phan/sources/othsec-web/web2py</div></td></tr><tr><td style="font-weight:bold;vertical-align:top;">is_jython</td><td style="vertical-align:top;">:</td><td><div>False</div></td></tr><tr><td style="font-weight:bold;vertical-align:top;">is_pypy</td><td style="vertical-align:top;">:</td><td><div>False</div></td></tr><tr><td style="font-weight:bold;vertical-align:top;">is_source</td><td style="vertical-align:top;">:</td><td><div>True</div></td></tr><tr><td style="font-weight:bold;vertical-align:top;">local_hosts</td><td style="vertical-align:top;">:</td><td><div><table><tr><td><div>::ffff:127.0.0.1</div></td></tr><tr><td><div>::1</div></td></tr><tr><td><div>elitelco-srv-002</div></td></tr><tr><td><div>192.168.0.15</div></td></tr><tr><td><div>localhost</div></td></tr><tr><td><div>127.0.0.1</div></td></tr></table></div></td></tr><tr><td style="font-weight:bold;vertical-align:top;">web2py_version</td><td style="vertical-align:top;">:</td><td><div>2.14.6-stable+timestamp.2016.05.10.00.21.47</div></td></tr></table></div></td></tr><tr><td style="font-weight:bold;vertical-align:top;">is_https</td><td style="vertical-align:top;">:</td><td><div>True</div></td></tr><tr><td style="font-weight:bold;vertical-align:top;">is_local</td><td style="vertical-align:top;">:</td><td><div>False</div></td></tr><tr><td style="font-weight:bold;vertical-align:top;">is_restful</td><td style="vertical-align:top;">:</td><td><div>False</div></td></tr><tr><td style="font-weight:bold;vertical-align:top;">is_scheduler</td><td style="vertical-align:top;">:</td><td><div>False</div></td></tr><tr><td style="font-weight:bold;vertical-align:top;">is_shell</td><td style="vertical-align:top;">:</td><td><div>False</div></td></tr><tr><td style="font-weight:bold;vertical-align:top;">now</td><td style="vertical-align:top;">:</td><td><div>datetime.datetime(2018, 9, 20, 15, 54, 12, 896977)</div></td></tr><tr><td style="font-weight:bold;vertical-align:top;">raw_args</td><td style="vertical-align:top;">:</td><td><div></div></td></tr><tr><td style="font-weight:bold;vertical-align:top;">raw_extension</td><td style="vertical-align:top;">:</td><td><div>None</div></td></tr><tr><td style="font-weight:bold;vertical-align:top;">url</td><td style="vertical-align:top;">:</td><td><div>/TrackR/errors/index</div></td></tr><tr><td style="font-weight:bold;vertical-align:top;">utcnow</td><td style="vertical-align:top;">:</td><td><div>datetime.datetime(2018, 9, 20, 13, 54, 12, 897013)</div></td></tr><tr><td style="font-weight:bold;vertical-align:top;">wsgi</td><td style="vertical-align:top;">:</td><td><div>&lt;gluon.main.LazyWSGI object at 0x7fdfb1322590&gt;</div></td></tr></table></div>'
tRp70
sS'frames'
p71
(lp72
(dp73
S'file'
p74
S'/home/phan/sources/othsec-web/web2py/gluon/restricted.py'
p75
sS'dump'
p76
(dp77
S'environment'
p78
S"{'A': <class 'gluon.html.A'>, 'ANY_OF': <class 'gluon.validators.ANY_OF'>, 'ASSIGNJS': <function ASSIGNJS>, 'AppConfig': <function AppConfig>, 'Auth': <class 'gluon.tools.Auth'>, 'B': <class 'gluon.html.B'>, 'BEAUTIFY': <class 'gluon.html.BEAUTIFY'>, 'BODY': <class 'gluon.html.BODY'>, 'BR': <class 'gluon.html.BR'>, 'BUTTON': <class 'gluon.html.BUTTON'>, ...}"
p79
sS'ccode'
p80
S'<code object <module> at 0x7fdf881cf230, file "/...web2py/applications/TrackR/models/db.py", line 2>'
p81
ssS'lnum'
p82
I227
sS'lines'
p83
(dp84
I224
S'            ccode = code'
p85
sI225
S'        else:'
p86
sI226
S'            ccode = compile2(code, layer)'
p87
sI227
S'        exec ccode in environment'
p88
sI228
S'    except HTTP:'
p89
sI229
S'        raise'
p90
sI230
S'    except RestrictedError:'
p91
sI231
S'        # do not encapsulate (obfuscate) the original RestrictedError'
p92
sI222
S'    try:'
p93
sI223
S'        if isinstance(code, types.CodeType):'
p94
ssS'call'
p95
S"(code='# -*- coding: utf-8 -*-\\nimport logging, logging....ender\\nmail.settings.login = settings.email_login\\n', environment={'A': <class 'gluon.html.A'>, 'ANY_OF': <class 'gluon.validators.ANY_OF'>, 'ASSIGNJS': <function ASSIGNJS>, 'AppConfig': <function AppConfig>, 'Auth': <class 'gluon.tools.Auth'>, 'B': <class 'gluon.html.B'>, 'BEAUTIFY': <class 'gluon.html.BEAUTIFY'>, 'BODY': <class 'gluon.html.BODY'>, 'BR': <class 'gluon.html.BR'>, 'BUTTON': <class 'gluon.html.BUTTON'>, ...}, layer='/home/phan/sources/othsec-web/web2py/applications/TrackR/models/db.py')"
p96
sS'func'
p97
S'restricted'
p98
sa(dp99
g74
S'/home/phan/sources/othsec-web/web2py/applications/TrackR/models/db.py'
p100
sg76
(dp101
S'username'
p102
S'undefined'
p103
sS'auth.define_tables'
p104
S'<bound method Auth.define_tables of <gluon.tools.Auth object>>'
p105
sS'builtinFalse'
p106
S'False'
p107
sS'auth'
p108
S'<gluon.tools.Auth object>'
p109
sS'signature'
p110
g103
ssg82
I100
sg83
(dp111
I96
S''
sI97
S'# -------------------------------------------------------------------------'
p112
sI98
S'# create all tables needed by auth if not custom tables'
p113
sI99
S'# -------------------------------------------------------------------------'
p114
sI100
S'auth.define_tables(username=False, signature=False)'
p115
sI101
S''
sI102
S'# -------------------------------------------------------------------------'
p116
sI103
S'# configure email'
p117
sI104
S'# -------------------------------------------------------------------------'
p118
sI95
S'plugins = PluginManager()'
p119
ssg95
S'()'
p120
sg97
S'<module>'
p121
sa(dp122
g74
S'/home/phan/sources/othsec-web/web2py/gluon/tools.py'
p123
sg76
(dp124
S'builtinformat'
p125
S'<built-in function format>'
p126
ssg82
I2376
sg83
(dp127
I2371
S'                    *extra_fields,'
p128
sI2372
S'                    **dict('
p129
sI2373
S'                        migrate=self.__get_migrate(settings.table_user_name,'
p130
sI2374
S'                                                   migrate),'
p131
sI2375
S'                        fake_migrate=fake_migrate,'
p132
sI2376
S"                        format='%(first_name)s %(last_name)s (%(id)s)'))"
p133
sI2377
S"        reference_table_user = 'reference %s' % settings.table_user_name"
p134
sI2378
S'        if settings.table_group_name not in db.tables:'
p135
sI2379
S'            extra_fields = settings.extra_fields.get('
p136
sI2380
S'                settings.table_group_name, []) + signature_list'
p137
ssg95
S'(self=<gluon.tools.Auth object>, username=False, signature=False, enable_tokens=False, migrate=True, fake_migrate=False)'
p138
sg97
S'define_tables'
p139
sa(dp140
g74
S'/home/phan/.local/lib/python2.7/site-packages/pydal/base.py'
p141
sg76
(dp142
S'fields'
p143
S'(<pydal.objects.Field object>, <pydal.objects.Field object>, <pydal.objects.Field object>, <pydal.objects.Field object>, <pydal.objects.Field object>, <pydal.objects.Field object>, <pydal.objects.Field object>)'
p144
sS'self'
p145
S'<DAL uri="postgres:******@db/othsec">'
p146
sS'args'
p147
S"{'fake_migrate': False, 'format': '%(first_name)s %(last_name)s (%(id)s)', 'migrate': True}"
p148
sS'tablename'
p149
S"'auth_user'"
p150
sS'table'
p151
g103
sS'self.lazy_define_table'
p152
S'<bound method DAL.lazy_define_table of <DAL uri="postgres:******@db/othsec">>'
p153
ssg82
I586
sg83
(dp154
I581
S'                                  (tablename, invalid_args))'
p155
sI582
S'        if self._lazy_tables and tablename not in self._LAZY_TABLES:'
p156
sI583
S'            self._LAZY_TABLES[tablename] = (tablename, fields, args)'
p157
sI584
S'            table = None'
p158
sI585
S'        else:'
p159
sI586
S'            table = self.lazy_define_table(tablename, *fields, **args)'
p160
sI587
S'        if tablename not in self.tables:'
p161
sI588
S'            self.tables.append(tablename)'
p162
sI589
S'        return table'
p163
sI590
S''
ssg95
S'(self=<DAL uri="postgres:******@db/othsec">, tablename=\'auth_user\', *fields=(<pydal.objects.Field object>, <pydal.objects.Field object>, <pydal.objects.Field object>, <pydal.objects.Field object>, <pydal.objects.Field object>, <pydal.objects.Field object>, <pydal.objects.Field object>), **args={\'fake_migrate\': False, \'format\': \'%(first_name)s %(last_name)s (%(id)s)\', \'migrate\': True})'
p164
sg97
S'define_table'
p165
sa(dp166
g74
S'/home/phan/.local/lib/python2.7/site-packages/pydal/base.py'
p167
sg76
(dp168
S'polymodel'
p169
S'None'
p170
ssg82
I620
sg83
(dp171
I615
S'            try:'
p172
sI616
S'                GLOBAL_LOCKER.acquire()'
p173
sI617
S'                self._adapter.create_table('
p174
sI618
S'                    table, migrate=migrate,'
p175
sI619
S'                    fake_migrate=fake_migrate,'
p176
sI620
S'                    polymodel=polymodel)'
p177
sI621
S'            finally:'
p178
sI622
S'                GLOBAL_LOCKER.release()'
p179
sI623
S'        else:'
p180
sI624
S'            table._dbt = None'
p181
ssg95
S'(self=<DAL uri="postgres:******@db/othsec">, tablename=\'auth_user\', *fields=(<pydal.objects.Field object>, <pydal.objects.Field object>, <pydal.objects.Field object>, <pydal.objects.Field object>, <pydal.objects.Field object>, <pydal.objects.Field object>, <pydal.objects.Field object>), **args={\'fake_migrate\': False, \'format\': \'%(first_name)s %(last_name)s (%(id)s)\', \'migrate\': True})'
p182
sg97
S'lazy_define_table'
p183
sa(dp184
g74
S'/home/phan/.local/lib/python2.7/site-packages/pydal/adapters/base.py'
p185
sg76
(dp186
S'self'
p187
S'<pydal.adapters.postgres.PostgrePsyco object>'
p188
sS'args'
p189
S'(<Table auth_user (id, first_name, last_name, ema...ration_key, reset_password_key, registration_id)>,)'
p190
sS'self.migrator'
p191
S'<pydal.migrator.Migrator object>'
p192
sS'self.migrator.create_table'
p193
S'<bound method Migrator.create_table of <pydal.migrator.Migrator object>>'
p194
sS'kwargs'
p195
S"{'fake_migrate': False, 'migrate': True, 'polymodel': None}"
p196
ssg82
I797
sg83
(dp197
I800
S'        super(SQLAdapter, self)._drop_table_cleanup(table)'
p198
sI801
S'        if table._dbt:'
p199
sI792
S''
sI793
S'    def bulk_insert(self, table, items):'
p200
sI794
S'        return [self.insert(table, item) for item in items]'
p201
sI795
S''
sI796
S'    def create_table(self, *args, **kwargs):'
p202
sI797
S'        return self.migrator.create_table(*args, **kwargs)'
p203
sI798
S''
sI799
S'    def _drop_table_cleanup(self, table):'
p204
ssg95
S"(self=<pydal.adapters.postgres.PostgrePsyco object>, *args=(<Table auth_user (id, first_name, last_name, ema...ration_key, reset_password_key, registration_id)>,), **kwargs={'fake_migrate': False, 'migrate': True, 'polymodel': None})"
p205
sg97
S'create_table'
p206
sa(dp207
g74
S'/home/phan/.local/lib/python2.7/site-packages/pydal/migrator.py'
p208
sg76
(dp209
S'query'
p210
S'\'CREATE TABLE "auth_user"(\\n    "id" SERIAL PRIMAR...RCHAR(512),\\n    "registration_id" VARCHAR(512)\\n);\''
p211
sS'self'
p212
S'<pydal.migrator.Migrator object>'
p213
sS'self.adapter'
p214
S'<pydal.adapters.postgres.PostgrePsyco object>'
p215
sS'self.adapter.create_sequence_and_triggers'
p216
S'<bound method PostgrePsyco.create_sequence_and_t...of <pydal.adapters.postgres.PostgrePsyco object>>'
p217
sS'table'
p218
S'<Table auth_user (id, first_name, last_name, ema...ration_key, reset_password_key, registration_id)>'
p219
ssg82
I277
sg83
(dp220
I272
S'            if table._dbt:'
p221
sI273
S"                self.log('timestamp: %s\\n%s\\n'"
p222
sI274
S'                         % (datetime.datetime.today().isoformat(),'
p223
sI275
S'                            query), table)'
p224
sI276
S'            if not fake_migrate:'
p225
sI277
S'                self.adapter.create_sequence_and_triggers(query, table)'
p226
sI278
S'                db.commit()'
p227
sI279
S'                # Postgres geom fields are added now,'
p228
sI280
S'                # after the table has been created'
p229
sI281
S'                for query in postcreation_fields:'
p230
ssg95
S'(self=<pydal.migrator.Migrator object>, table=<Table auth_user (id, first_name, last_name, ema...ration_key, reset_password_key, registration_id)>, migrate=True, fake_migrate=False, polymodel=None)'
p231
sg97
g206
sa(dp232
g74
S'/home/phan/.local/lib/python2.7/site-packages/pydal/adapters/base.py'
p233
sg76
(dp234
S'query'
p235
S'\'CREATE TABLE "auth_user"(\\n    "id" SERIAL PRIMAR...RCHAR(512),\\n    "registration_id" VARCHAR(512)\\n);\''
p236
sS'self'
p237
S'<pydal.adapters.postgres.PostgrePsyco object>'
p238
sS'self.execute'
p239
S'<bound method PostgrePsyco.wrap of <pydal.adapters.postgres.PostgrePsyco object>>'
p240
ssg82
I880
sg83
(dp241
I875
S'    @with_connection'
p242
sI876
S'    def rollback_prepared(self, key):'
p243
sI877
S'        self.connection.rollback()'
p244
sI878
S''
sI879
S'    def create_sequence_and_triggers(self, query, table, **args):'
p245
sI880
S'        self.execute(query)'
p246
sI881
S''
sI882
S'    def sqlsafe_table(self, tablename, original_tablename=None):'
p247
sI883
S'        if original_tablename is not None:'
p248
sI884
S'            return self.dialect.alias(original_tablename, tablename)'
p249
ssg95
S'(self=<pydal.adapters.postgres.PostgrePsyco object>, query=\'CREATE TABLE "auth_user"(\\n    "id" SERIAL PRIMAR...RCHAR(512),\\n    "registration_id" VARCHAR(512)\\n);\', table=<Table auth_user (id, first_name, last_name, ema...ration_key, reset_password_key, registration_id)>, **args={})'
p250
sg97
S'create_sequence_and_triggers'
p251
sa(dp252
g74
S'/home/phan/.local/lib/python2.7/site-packages/pydal/adapters/__init__.py'
p253
sg76
(dp254
S'kwargs'
p255
g21
sS'args'
p256
S'(<pydal.adapters.postgres.PostgrePsyco object>, \'CREATE TABLE "auth_user"(\\n    "id" SERIAL PRIMAR...RCHAR(512),\\n    "registration_id" VARCHAR(512)\\n);\')'
p257
sS'f'
S'<function execute>'
p258
ssg82
I67
sg83
(dp259
I64
S'            if len(args) > 1:'
p260
sI65
S'                raise ValueError(args[1])'
p261
sI66
S"            raise RuntimeError('no connection available')"
p262
sI67
S'        return f(*args, **kwargs)'
p263
sI68
S'    return wrap'
p264
sI69
S''
sI70
S''
sI71
S'from .base import SQLAdapter, NoSQLAdapter'
p265
sI62
S'    def wrap(*args, **kwargs):'
p266
sI63
S'        if not args[0].connection:'
p267
ssg95
S'(*args=(<pydal.adapters.postgres.PostgrePsyco object>, \'CREATE TABLE "auth_user"(\\n    "id" SERIAL PRIMAR...RCHAR(512),\\n    "registration_id" VARCHAR(512)\\n);\'), **kwargs={})'
p268
sg97
S'wrap'
p269
sa(dp270
g74
S'/home/phan/.local/lib/python2.7/site-packages/pydal/adapters/base.py'
p271
sg76
(dp272
S'rv'
p273
g103
sS'self'
p274
S'<pydal.adapters.postgres.PostgrePsyco object>'
p275
sS'args'
p276
S'(\'CREATE TABLE "auth_user"(\\n    "id" SERIAL PRIMAR...RCHAR(512),\\n    "registration_id" VARCHAR(512)\\n);\',)'
p277
sS'self.cursor'
p278
S'<cursor object at 0x7fdfb155b718; closed: 0>'
p279
sS'command'
p280
S'\'CREATE TABLE "auth_user"(\\n    "id" SERIAL PRIMAR...RCHAR(512),\\n    "registration_id" VARCHAR(512)\\n);\''
p281
sS'self.cursor.execute'
p282
S'<built-in method execute of psycopg2.extensions.cursor object>'
p283
sS'kwargs'
p284
g21
ssg82
I412
sg83
(dp285
I416
S''
sI407
S'    def execute(self, *args, **kwargs):'
p286
sI408
S'        command = self.filter_sql_command(args[0])'
p287
sI409
S'        handlers = self._build_handlers_for_execution()'
p288
sI410
S'        for handler in handlers:'
p289
sI411
S'            handler.before_execute(command)'
p290
sI412
S'        rv = self.cursor.execute(command, *args[1:], **kwargs)'
p291
sI413
S'        for handler in handlers:'
p292
sI414
S'            handler.after_execute(command)'
p293
sI415
S'        return rv'
p294
ssg95
S'(self=<pydal.adapters.postgres.PostgrePsyco object>, *args=(\'CREATE TABLE "auth_user"(\\n    "id" SERIAL PRIMAR...RCHAR(512),\\n    "registration_id" VARCHAR(512)\\n);\',), **kwargs={})'
p295
sg97
S'execute'
p296
sasS'pyver'
p297
S'Python 2.7.12: /usr/bin/python (prefix: /usr)'
p298
sS'session'
p299
g69
(S's\x1a\x00\x00\x00<div><table></table></div>'
tRp300
sS'etype'
p301
S"<class 'psycopg2.ProgrammingError'>"
p302
sS'date'
p303
S'Thu Sep 20 15:54:12 2018'
p304
sS'response'
p305
g69
(S's-\x16\x00\x00<div><table><tr><td style="font-weight:bold;vertical-align:top;">body</td><td style="vertical-align:top;">:</td><td><div>&lt;cStringIO.StringO object at 0x7fdf89f670d8&gt;</div></td></tr><tr><td style="font-weight:bold;vertical-align:top;">cookies</td><td style="vertical-align:top;">:</td><td><div><table><tr><td style="font-weight:bold;vertical-align:top;">session_id_trackr</td><td style="vertical-align:top;">:</td><td><div>82.127.164.154-39b00624-2fe5-4086-8f50-b40adc785ce7<table><tr><td style="font-weight:bold;vertical-align:top;">comment</td><td style="vertical-align:top;">:</td><td><div></div></td></tr><tr><td style="font-weight:bold;vertical-align:top;">domain</td><td style="vertical-align:top;">:</td><td><div></div></td></tr><tr><td style="font-weight:bold;vertical-align:top;">expires</td><td style="vertical-align:top;">:</td><td><div></div></td></tr><tr><td style="font-weight:bold;vertical-align:top;">httponly</td><td style="vertical-align:top;">:</td><td><div></div></td></tr><tr><td style="font-weight:bold;vertical-align:top;">max-age</td><td style="vertical-align:top;">:</td><td><div></div></td></tr><tr><td style="font-weight:bold;vertical-align:top;">path</td><td style="vertical-align:top;">:</td><td><div>/</div></td></tr><tr><td style="font-weight:bold;vertical-align:top;">secure</td><td style="vertical-align:top;">:</td><td><div></div></td></tr><tr><td style="font-weight:bold;vertical-align:top;">version</td><td style="vertical-align:top;">:</td><td><div></div></td></tr></table></div></td></tr></table></div></td></tr><tr><td style="font-weight:bold;vertical-align:top;">delimiters</td><td style="vertical-align:top;">:</td><td><div><table><tr><td><div>{{</div></td></tr><tr><td><div>}}</div></td></tr></table></div></td></tr><tr><td style="font-weight:bold;vertical-align:top;">files</td><td style="vertical-align:top;">:</td><td><div><table></table></div></td></tr><tr><td style="font-weight:bold;vertical-align:top;">flash</td><td style="vertical-align:top;">:</td><td><div></div></td></tr><tr><td style="font-weight:bold;vertical-align:top;">form_label_separator</td><td style="vertical-align:top;">:</td><td><div></div></td></tr><tr><td style="font-weight:bold;vertical-align:top;">formstyle</td><td style="vertical-align:top;">:</td><td><div>bootstrap3_inline</div></td></tr><tr><td style="font-weight:bold;vertical-align:top;">generic_patterns</td><td style="vertical-align:top;">:</td><td><div><table></table></div></td></tr><tr><td style="font-weight:bold;vertical-align:top;">headers</td><td style="vertical-align:top;">:</td><td><div><table><tr><td style="font-weight:bold;vertical-align:top;">X-Powered-By</td><td style="vertical-align:top;">:</td><td><div>web2py</div></td></tr></table></div></td></tr><tr><td style="font-weight:bold;vertical-align:top;">menu</td><td style="vertical-align:top;">:</td><td><div><table></table></div></td></tr><tr><td style="font-weight:bold;vertical-align:top;">meta</td><td style="vertical-align:top;">:</td><td><div><table></table></div></td></tr><tr><td style="font-weight:bold;vertical-align:top;">models_to_run</td><td style="vertical-align:top;">:</td><td><div><table><tr><td><div>^\\w+\\.py$</div></td></tr><tr><td><div>^errors/\\w+\\.py$</div></td></tr><tr><td><div>^errors/index/\\w+\\.py$</div></td></tr></table></div></td></tr><tr><td style="font-weight:bold;vertical-align:top;">postprocessing</td><td style="vertical-align:top;">:</td><td><div><table></table></div></td></tr><tr><td style="font-weight:bold;vertical-align:top;">session_client</td><td style="vertical-align:top;">:</td><td><div>82.127.164.154</div></td></tr><tr><td style="font-weight:bold;vertical-align:top;">session_cookie_compression_level</td><td style="vertical-align:top;">:</td><td><div>None</div></td></tr><tr><td style="font-weight:bold;vertical-align:top;">session_cookie_expires</td><td style="vertical-align:top;">:</td><td><div>None</div></td></tr><tr><td style="font-weight:bold;vertical-align:top;">session_data_name</td><td style="vertical-align:top;">:</td><td><div>session_data_trackr</div></td></tr><tr><td style="font-weight:bold;vertical-align:top;">session_file</td><td style="vertical-align:top;">:</td><td><div>None</div></td></tr><tr><td style="font-weight:bold;vertical-align:top;">session_filename</td><td style="vertical-align:top;">:</td><td><div>/home/phan/sources/othsec-web/web2py/applications/TrackR/sessions/82.127.164.154-39b00624-2fe5-4086-8f50-b40adc785ce7</div></td></tr><tr><td style="font-weight:bold;vertical-align:top;">session_hash</td><td style="vertical-align:top;">:</td><td><div>c0762cbf4baf7f9af97c051e7fcb8083</div></td></tr><tr><td style="font-weight:bold;vertical-align:top;">session_id</td><td style="vertical-align:top;">:</td><td><div>82.127.164.154-39b00624-2fe5-4086-8f50-b40adc785ce7</div></td></tr><tr><td style="font-weight:bold;vertical-align:top;">session_id_name</td><td style="vertical-align:top;">:</td><td><div>session_id_trackr</div></td></tr><tr><td style="font-weight:bold;vertical-align:top;">session_masterapp</td><td style="vertical-align:top;">:</td><td><div>TrackR</div></td></tr><tr><td style="font-weight:bold;vertical-align:top;">session_new</td><td style="vertical-align:top;">:</td><td><div>True</div></td></tr><tr><td style="font-weight:bold;vertical-align:top;">session_storage_type</td><td style="vertical-align:top;">:</td><td><div>file</div></td></tr><tr><td style="font-weight:bold;vertical-align:top;">status</td><td style="vertical-align:top;">:</td><td><div>500</div></td></tr><tr><td style="font-weight:bold;vertical-align:top;">view</td><td style="vertical-align:top;">:</td><td><div>errors/index.html</div></td></tr></table></div>'
tRp306
sS'locals'
p307
(dp308
S'handlers'
p309
S'[<pydal.helpers.classes.TimingHandler object>]'
p310
sS'self'
p311
S'<pydal.adapters.postgres.PostgrePsyco object>'
p312
sg50
S'(\'CREATE TABLE "auth_user"(\\n    "id" SERIAL PRIMAR...RCHAR(512),\\n    "registration_id" VARCHAR(512)\\n);\',)'
p313
sS'handler'
p314
S'<pydal.helpers.classes.TimingHandler object>'
p315
sS'command'
p316
S'\'CREATE TABLE "auth_user"(\\n    "id" SERIAL PRIMAR...RCHAR(512),\\n    "registration_id" VARCHAR(512)\\n);\''
p317
sS'kwargs'
p318
g21
sssS'traceback'
p319
S'Traceback (most recent call last):\n  File "/home/phan/sources/othsec-web/web2py/gluon/restricted.py", line 227, in restricted\n    exec ccode in environment\n  File "/home/phan/sources/othsec-web/web2py/applications/TrackR/models/db.py", line 100, in <module>\n    auth.define_tables(username=False, signature=False)\n  File "/home/phan/sources/othsec-web/web2py/gluon/tools.py", line 2376, in define_tables\n    format=\'%(first_name)s %(last_name)s (%(id)s)\'))\n  File "/home/phan/.local/lib/python2.7/site-packages/pydal/base.py", line 586, in define_table\n    table = self.lazy_define_table(tablename, *fields, **args)\n  File "/home/phan/.local/lib/python2.7/site-packages/pydal/base.py", line 620, in lazy_define_table\n    polymodel=polymodel)\n  File "/home/phan/.local/lib/python2.7/site-packages/pydal/adapters/base.py", line 797, in create_table\n    return self.migrator.create_table(*args, **kwargs)\n  File "/home/phan/.local/lib/python2.7/site-packages/pydal/migrator.py", line 277, in create_table\n    self.adapter.create_sequence_and_triggers(query, table)\n  File "/home/phan/.local/lib/python2.7/site-packages/pydal/adapters/base.py", line 880, in create_sequence_and_triggers\n    self.execute(query)\n  File "/home/phan/.local/lib/python2.7/site-packages/pydal/adapters/__init__.py", line 67, in wrap\n    return f(*args, **kwargs)\n  File "/home/phan/.local/lib/python2.7/site-packages/pydal/adapters/base.py", line 412, in execute\n    rv = self.cursor.execute(command, *args[1:], **kwargs)\nProgrammingError: relation "auth_user" already exists\n\n'
p320
s.